target datalayout = "e-m:e-p270:32:32-p271:32:32-p272:64:64-i64:64-i128:128-f80:128-n8:16:32:64-S128"
target triple = "x86_64-pc-linux-gnu"

%union.EX_STYPE = type { ptr }
%struct.Expr_s = type { ptr, ptr, [10 x ptr], ptr, ptr, ptr, %struct._dtdisc_s, ptr, ptr, ptr, %struct.agxbuf, %union.EX_STYPE, %struct.Exid_s, [512 x i8], ptr, i32, i32, i32, i32, i64, i32, i32 }
%struct._dtdisc_s = type { i32, i32, i32, ptr, ptr, ptr }
%struct.agxbuf = type { %union.anon }
%union.anon = type { %struct.anon }
%struct.anon = type { ptr, i64, i64, [7 x i8], i8 }
%struct.Exid_s = type { %struct._dtlink_s, i64, i64, i64, i64, i64, ptr, ptr, i64, [32 x i8] }
%struct._dtlink_s = type { ptr, %union.anon.0 }
%union.anon.0 = type { ptr }
%struct.Exdisc_s = type { i64, i64, ptr, ptr, ptr, ptr, ptr, ptr, ptr, ptr, ptr, ptr, ptr, ptr, ptr, ptr, ptr, ptr, ptr }

@typename = internal global [6 x ptr] [ptr @.str.57, ptr @.str.58, ptr @.str.59, ptr @.str.60, ptr @.str.61, ptr @.str.62], align 16

; Function Attrs: nounwind uwtable
define ptr @extypename(ptr noundef %0, i32 noundef %1) #0 {
  %3 = alloca ptr, align 8
  %4 = alloca ptr, align 8
  %5 = alloca i32, align 4
  store ptr %0, ptr %4, align 8
  store i32 %1, ptr %5, align 4
  %6 = load i32, ptr %5, align 4
  %7 = icmp sgt i32 %6, 258
  br i1 %7, label %8, label %24

8:                                                ; preds = %2
  %9 = load i32, ptr %5, align 4
  %10 = icmp sge i32 %9, 259
  br i1 %10, label %11, label %18

11:                                               ; preds = %8
  %12 = load i32, ptr %5, align 4
  %13 = icmp sle i32 %12, 263
  br i1 %13, label %14, label %18

14:                                               ; preds = %11
  %15 = load i32, ptr %5, align 4
  %16 = sub nsw i32 %15, 259
  %17 = add nsw i32 %16, 1
  br label %19

18:                                               ; preds = %11, %8
  br label %19

19:                                               ; preds = %18, %14
  %20 = phi i32 [ %17, %14 ], [ 0, %18 ]
  %21 = sext i32 %20 to i64
  %22 = getelementptr inbounds [6 x ptr], ptr @typename, i64 0, i64 %21
  %23 = load ptr, ptr %22, align 8
  store ptr %23, ptr %3, align 8
  br label %32

24:                                               ; preds = %2
  %25 = load ptr, ptr %4, align 8
  %26 = getelementptr inbounds %struct.Expr_s, ptr %25, i32 0, i32 7
  %27 = load ptr, ptr %26, align 8
  %28 = getelementptr inbounds %struct.Exdisc_s, ptr %27, i32 0, i32 9
  %29 = load ptr, ptr %28, align 8
  %30 = load i32, ptr %5, align 4
  %31 = call ptr %29(i32 noundef %30)
  store ptr %31, ptr %3, align 8
  br label %32

32:                                               ; preds = %24, %19
  %33 = load ptr, ptr %3, align 8
  ret ptr %33
}