; Function Attrs: nounwind uwtable
define ptr @extypename(ptr noundef readonly captures(none) %0, i32 noundef %1) local_unnamed_addr #0 {
  %3 = icmp sgt i32 %1, 258
  br i1 %3, label %4, label %11

4:                                                ; preds = %2
  %5 = icmp samesign ult i32 %1, 264
  %6 = add nsw i32 %1, -258
  %7 = select i1 %5, i32 %6, i32 0
  %8 = zext nneg i32 %7 to i64
  %9 = getelementptr inbounds nuw [6 x ptr], ptr @typename, i64 0, i64 %8
  %10 = load ptr, ptr %9, align 8
  br label %17

11:                                               ; preds = %2
  %12 = getelementptr inbounds nuw i8, ptr %0, i64 160
  %13 = load ptr, ptr %12, align 8
  %14 = getelementptr inbounds nuw i8, ptr %13, i64 72
  %15 = load ptr, ptr %14, align 8
  %16 = tail call ptr %15(i32 noundef %1) #22
  br label %17

17:                                               ; preds = %11, %4
  %.0 = phi ptr [ %10, %4 ], [ %16, %11 ]
  ret ptr %.0
}